target datalayout = "e-m:e-p270:32:32-p271:32:32-p272:64:64-i64:64-i128:128-f80:128-n8:16:32:64-S128"
target triple = "x86_64-pc-linux-gnu"

%struct.hb_blob_t = type { %struct.hb_object_header_t, ptr, i32, i32, ptr, ptr }
%struct.hb_object_header_t = type { %struct.hb_reference_count_t, %struct.hb_atomic_int_t, %struct.hb_atomic_ptr_t }
%struct.hb_reference_count_t = type { %struct.hb_atomic_int_t }
%struct.hb_atomic_int_t = type { i32 }
%struct.hb_atomic_ptr_t = type { ptr }

@.str = private unnamed_addr constant [5 x i8] c"BLOB\00", align 1
@__PRETTY_FUNCTION__._ZN9hb_blob_t25try_make_writable_inplaceEv = private unnamed_addr constant [44 x i8] c"bool hb_blob_t::try_make_writable_inplace()\00", align 1
@.str.6 = private unnamed_addr constant [25 x i8] c"making writable inplace\0A\00", align 1
@.str.7 = private unnamed_addr constant [27 x i8] c"making writable -> FAILED\0A\00", align 1

; Function Attrs: mustprogress nounwind uwtable
define internal void @_ZL13_hb_debug_msgILi0EEvPKcPKvS1_bjiS1_z(ptr noundef %0, ptr noundef %1, ptr noundef %2, i1 noundef zeroext %3, i32 noundef %4, i32 noundef %5, ptr noundef %6, ...) #1 {
  %8 = alloca ptr, align 8
  %9 = alloca ptr, align 8
  %10 = alloca ptr, align 8
  %11 = alloca i8, align 1
  %12 = alloca i32, align 4
  %13 = alloca i32, align 4
  %14 = alloca ptr, align 8
  store ptr %0, ptr %8, align 8
  store ptr %1, ptr %9, align 8
  store ptr %2, ptr %10, align 8
  %15 = zext i1 %3 to i8
  store i8 %15, ptr %11, align 1
  store i32 %4, ptr %12, align 4
  store i32 %5, ptr %13, align 4
  store ptr %6, ptr %14, align 8
  ret void
}

; Function Attrs: mustprogress uwtable
define hidden noundef zeroext i1 @_ZN9hb_blob_t25try_make_writable_inplaceEv(ptr noundef nonnull align 8 dereferenceable(48) %0) #0 align 2 {
  %2 = alloca i1, align 1
  %3 = alloca ptr, align 8
  store ptr %0, ptr %3, align 8
  %4 = load ptr, ptr %3, align 8
  call void (ptr, ptr, ptr, i1, i32, i32, ptr, ...) @_ZL13_hb_debug_msgILi0EEvPKcPKvS1_bjiS1_z(ptr noundef @.str, ptr noundef %4, ptr noundef @__PRETTY_FUNCTION__._ZN9hb_blob_t25try_make_writable_inplaceEv, i1 noundef zeroext false, i32 noundef 0, i32 noundef 0, ptr noundef @.str.6)
  %5 = call noundef zeroext i1 @_ZN9hb_blob_t30try_make_writable_inplace_unixEv(ptr noundef nonnull align 8 dereferenceable(48) %4)
  br i1 %5, label %6, label %7

6:                                                ; preds = %1
  store i1 true, ptr %2, align 1
  br label %9

7:                                                ; preds = %1
  call void (ptr, ptr, ptr, i1, i32, i32, ptr, ...) @_ZL13_hb_debug_msgILi0EEvPKcPKvS1_bjiS1_z(ptr noundef @.str, ptr noundef %4, ptr noundef @__PRETTY_FUNCTION__._ZN9hb_blob_t25try_make_writable_inplaceEv, i1 noundef zeroext false, i32 noundef 0, i32 noundef 0, ptr noundef @.str.7)
  %8 = getelementptr inbounds %struct.hb_blob_t, ptr %4, i32 0, i32 3
  store i32 1, ptr %8, align 4
  store i1 false, ptr %2, align 1
  br label %9

9:                                                ; preds = %7, %6
  %10 = load i1, ptr %2, align 1
  ret i1 %10
}