; Function Attrs: mustprogress nounwind uwtable
define hidden noundef zeroext i1 @_ZN9hb_blob_t25try_make_writable_inplaceEv(ptr nocapture noundef nonnull align 8 dereferenceable(48) %0) local_unnamed_addr #4 align 2 {
  %2 = tail call noundef zeroext i1 @_ZN9hb_blob_t30try_make_writable_inplace_unixEv(ptr noundef nonnull align 8 dereferenceable(48) %0)
  br i1 %2, label %5, label %3

3:                                                ; preds = %1
  %4 = getelementptr inbounds i8, ptr %0, i64 28
  store i32 1, ptr %4, align 4
  br label %5

5:                                                ; preds = %1, %3
  ret i1 %2
}